target datalayout = "e-m:e-p270:32:32-p271:32:32-p272:64:64-i64:64-i128:128-f80:128-n8:16:32:64-S128"
target triple = "x86_64-pc-linux-gnu"

; Function Attrs: nounwind uwtable
define dso_local i32 @jvp_utf8_encode(i32 noundef %0, ptr noundef %1) #0 {
  %3 = alloca i32, align 4
  %4 = alloca ptr, align 8
  %5 = alloca ptr, align 8
  store i32 %0, ptr %3, align 4, !tbaa !11
  store ptr %1, ptr %4, align 8, !tbaa !4
  call void @llvm.lifetime.start.p0(i64 8, ptr %5) #2
  %6 = load ptr, ptr %4, align 8, !tbaa !4
  store ptr %6, ptr %5, align 8, !tbaa !4
  %7 = load i32, ptr %3, align 4, !tbaa !11
  %8 = icmp sle i32 %7, 127
  br i1 %8, label %9, label %14

9:                                                ; preds = %2
  %10 = load i32, ptr %3, align 4, !tbaa !11
  %11 = trunc i32 %10 to i8
  %12 = load ptr, ptr %4, align 8, !tbaa !4
  %13 = getelementptr inbounds nuw i8, ptr %12, i32 1
  store ptr %13, ptr %4, align 8, !tbaa !4
  store i8 %11, ptr %12, align 1, !tbaa !13
  br label %85

14:                                               ; preds = %2
  %15 = load i32, ptr %3, align 4, !tbaa !11
  %16 = icmp sle i32 %15, 2047
  br i1 %16, label %17, label %31

17:                                               ; preds = %14
  %18 = load i32, ptr %3, align 4, !tbaa !11
  %19 = and i32 %18, 1984
  %20 = ashr i32 %19, 6
  %21 = add nsw i32 192, %20
  %22 = trunc i32 %21 to i8
  %23 = load ptr, ptr %4, align 8, !tbaa !4
  %24 = getelementptr inbounds nuw i8, ptr %23, i32 1
  store ptr %24, ptr %4, align 8, !tbaa !4
  store i8 %22, ptr %23, align 1, !tbaa !13
  %25 = load i32, ptr %3, align 4, !tbaa !11
  %26 = and i32 %25, 63
  %27 = add nsw i32 128, %26
  %28 = trunc i32 %27 to i8
  %29 = load ptr, ptr %4, align 8, !tbaa !4
  %30 = getelementptr inbounds nuw i8, ptr %29, i32 1
  store ptr %30, ptr %4, align 8, !tbaa !4
  store i8 %28, ptr %29, align 1, !tbaa !13
  br label %84

31:                                               ; preds = %14
  %32 = load i32, ptr %3, align 4, !tbaa !11
  %33 = icmp sle i32 %32, 65535
  br i1 %33, label %34, label %55

34:                                               ; preds = %31
  %35 = load i32, ptr %3, align 4, !tbaa !11
  %36 = and i32 %35, 61440
  %37 = ashr i32 %36, 12
  %38 = add nsw i32 224, %37
  %39 = trunc i32 %38 to i8
  %40 = load ptr, ptr %4, align 8, !tbaa !4
  %41 = getelementptr inbounds nuw i8, ptr %40, i32 1
  store ptr %41, ptr %4, align 8, !tbaa !4
  store i8 %39, ptr %40, align 1, !tbaa !13
  %42 = load i32, ptr %3, align 4, !tbaa !11
  %43 = and i32 %42, 4032
  %44 = ashr i32 %43, 6
  %45 = add nsw i32 128, %44
  %46 = trunc i32 %45 to i8
  %47 = load ptr, ptr %4, align 8, !tbaa !4
  %48 = getelementptr inbounds nuw i8, ptr %47, i32 1
  store ptr %48, ptr %4, align 8, !tbaa !4
  store i8 %46, ptr %47, align 1, !tbaa !13
  %49 = load i32, ptr %3, align 4, !tbaa !11
  %50 = and i32 %49, 63
  %51 = add nsw i32 128, %50
  %52 = trunc i32 %51 to i8
  %53 = load ptr, ptr %4, align 8, !tbaa !4
  %54 = getelementptr inbounds nuw i8, ptr %53, i32 1
  store ptr %54, ptr %4, align 8, !tbaa !4
  store i8 %52, ptr %53, align 1, !tbaa !13
  br label %83

55:                                               ; preds = %31
  %56 = load i32, ptr %3, align 4, !tbaa !11
  %57 = and i32 %56, 1835008
  %58 = ashr i32 %57, 18
  %59 = add nsw i32 240, %58
  %60 = trunc i32 %59 to i8
  %61 = load ptr, ptr %4, align 8, !tbaa !4
  %62 = getelementptr inbounds nuw i8, ptr %61, i32 1
  store ptr %62, ptr %4, align 8, !tbaa !4
  store i8 %60, ptr %61, align 1, !tbaa !13
  %63 = load i32, ptr %3, align 4, !tbaa !11
  %64 = and i32 %63, 258048
  %65 = ashr i32 %64, 12
  %66 = add nsw i32 128, %65
  %67 = trunc i32 %66 to i8
  %68 = load ptr, ptr %4, align 8, !tbaa !4
  %69 = getelementptr inbounds nuw i8, ptr %68, i32 1
  store ptr %69, ptr %4, align 8, !tbaa !4
  store i8 %67, ptr %68, align 1, !tbaa !13
  %70 = load i32, ptr %3, align 4, !tbaa !11
  %71 = and i32 %70, 4032
  %72 = ashr i32 %71, 6
  %73 = add nsw i32 128, %72
  %74 = trunc i32 %73 to i8
  %75 = load ptr, ptr %4, align 8, !tbaa !4
  %76 = getelementptr inbounds nuw i8, ptr %75, i32 1
  store ptr %76, ptr %4, align 8, !tbaa !4
  store i8 %74, ptr %75, align 1, !tbaa !13
  %77 = load i32, ptr %3, align 4, !tbaa !11
  %78 = and i32 %77, 63
  %79 = add nsw i32 128, %78
  %80 = trunc i32 %79 to i8
  %81 = load ptr, ptr %4, align 8, !tbaa !4
  %82 = getelementptr inbounds nuw i8, ptr %81, i32 1
  store ptr %82, ptr %4, align 8, !tbaa !4
  store i8 %80, ptr %81, align 1, !tbaa !13
  br label %83

83:                                               ; preds = %55, %34
  br label %84

84:                                               ; preds = %83, %17
  br label %85

85:                                               ; preds = %84, %9
  %86 = load ptr, ptr %4, align 8, !tbaa !4
  %87 = load ptr, ptr %5, align 8, !tbaa !4
  %88 = ptrtoint ptr %86 to i64
  %89 = ptrtoint ptr %87 to i64
  %90 = sub i64 %88, %89
  %91 = trunc i64 %90 to i32
  call void @llvm.lifetime.end.p0(i64 8, ptr %5) #2
  ret i32 %91
}