; Function Attrs: mustprogress nofree norecurse nosync nounwind willreturn memory(argmem: write) uwtable
define dso_local i32 @jvp_utf8_encode(i32 noundef %0, ptr noundef initializes((0, 1)) %1) local_unnamed_addr #3 {
  %3 = icmp slt i32 %0, 128
  br i1 %3, label %4, label %7

4:                                                ; preds = %2
  %5 = trunc i32 %0 to i8
  %6 = getelementptr inbounds nuw i8, ptr %1, i64 1
  store i8 %5, ptr %1, align 1, !tbaa !4
  br label %54

7:                                                ; preds = %2
  %8 = icmp samesign ult i32 %0, 2048
  br i1 %8, label %9, label %18

9:                                                ; preds = %7
  %10 = lshr i32 %0, 6
  %11 = trunc nuw i32 %10 to i8
  %12 = or disjoint i8 %11, -64
  %13 = getelementptr inbounds nuw i8, ptr %1, i64 1
  store i8 %12, ptr %1, align 1, !tbaa !4
  %14 = trunc i32 %0 to i8
  %15 = and i8 %14, 63
  %16 = or disjoint i8 %15, -128
  %17 = getelementptr inbounds nuw i8, ptr %1, i64 2
  store i8 %16, ptr %13, align 1, !tbaa !4
  br label %54

18:                                               ; preds = %7
  %19 = icmp samesign ult i32 %0, 65536
  br i1 %19, label %20, label %34

20:                                               ; preds = %18
  %21 = lshr i32 %0, 12
  %22 = trunc nuw i32 %21 to i8
  %23 = or disjoint i8 %22, -32
  %24 = getelementptr inbounds nuw i8, ptr %1, i64 1
  store i8 %23, ptr %1, align 1, !tbaa !4
  %25 = lshr i32 %0, 6
  %26 = trunc i32 %25 to i8
  %27 = and i8 %26, 63
  %28 = or disjoint i8 %27, -128
  %29 = getelementptr inbounds nuw i8, ptr %1, i64 2
  store i8 %28, ptr %24, align 1, !tbaa !4
  %30 = trunc i32 %0 to i8
  %31 = and i8 %30, 63
  %32 = or disjoint i8 %31, -128
  %33 = getelementptr inbounds nuw i8, ptr %1, i64 3
  store i8 %32, ptr %29, align 1, !tbaa !4
  br label %54

34:                                               ; preds = %18
  %35 = lshr i32 %0, 18
  %36 = trunc i32 %35 to i8
  %37 = and i8 %36, 7
  %38 = or disjoint i8 %37, -16
  %39 = getelementptr inbounds nuw i8, ptr %1, i64 1
  store i8 %38, ptr %1, align 1, !tbaa !4
  %40 = lshr i32 %0, 12
  %41 = trunc i32 %40 to i8
  %42 = and i8 %41, 63
  %43 = or disjoint i8 %42, -128
  %44 = getelementptr inbounds nuw i8, ptr %1, i64 2
  store i8 %43, ptr %39, align 1, !tbaa !4
  %45 = lshr i32 %0, 6
  %46 = trunc i32 %45 to i8
  %47 = and i8 %46, 63
  %48 = or disjoint i8 %47, -128
  %49 = getelementptr inbounds nuw i8, ptr %1, i64 3
  store i8 %48, ptr %44, align 1, !tbaa !4
  %50 = trunc i32 %0 to i8
  %51 = and i8 %50, 63
  %52 = or disjoint i8 %51, -128
  %53 = getelementptr inbounds nuw i8, ptr %1, i64 4
  store i8 %52, ptr %49, align 1, !tbaa !4
  br label %54

54:                                               ; preds = %9, %34, %20, %4
  %.0 = phi ptr [ %6, %4 ], [ %17, %9 ], [ %33, %20 ], [ %53, %34 ]
  %55 = ptrtoint ptr %.0 to i64
  %56 = ptrtoint ptr %1 to i64
  %57 = sub i64 %55, %56
  %58 = trunc i64 %57 to i32
  ret i32 %58
}